Certificate:
    Data:
        Version: 3 (0x2)
        Serial Number: 3438230314 (0xccef3b2a)
        Signature Algorithm: sha256WithRSAEncryption
        Issuer: C=US, ST=California, L=San Francisco, O=Twitch, OU=Twitch Developer Rig, CN=Twitch Developer Rig CA/emailAddress=twitchdev@twitch.tv
        Validity
            Not Before: Aug  9 22:20:24 2018 GMT
            Not After : May 23 22:20:24 2292 GMT
        Subject: C=US, ST=California, L=San Francisco, O=Twtich, OU=Twitch Developer Rig, CN=Twitch Developer Rig
        Subject Public Key Info:
            Public Key Algorithm: rsaEncryption
            RSA Public Key: (2048 bit)
                Modulus (2048 bit):
                    00:e6:fe:a2:2c:63:a6:23:0d:d2:23:59:11:33:9a:
                    f7:76:3f:88:ea:16:e9:d2:09:4f:24:50:1f:fd:95:
                    e8:00:b5:97:7f:bb:d8:bb:6b:fa:44:6f:bc:34:f0:
                    3a:e5:c3:63:5b:ee:21:21:7c:38:81:71:13:c9:43:
                    8a:c8:e1:c4:b6:2c:67:86:40:8d:59:99:81:ff:08:
                    f1:89:2b:f8:0b:7a:8f:31:01:39:87:79:fe:1c:ba:
                    ad:e1:e9:d3:12:6b:dd:6c:07:07:bb:53:be:8c:72:
                    c3:5f:56:d3:89:d2:6e:53:ff:f8:e8:9c:da:b1:82:
                    3c:95:6f:68:4e:8c:98:98:26:dc:bc:ee:0e:6e:70:
                    a2:2b:1f:99:0a:e2:e7:14:90:5e:19:64:63:1a:7a:
                    42:db:6d:15:01:b7:22:82:8f:a3:11:1d:85:1e:18:
                    4f:0a:d9:ec:f3:a2:d7:90:5a:cc:4c:d2:0d:dc:b6:
                    ba:17:cf:ce:15:33:0f:20:9a:1b:1d:ab:dd:95:33:
                    a8:ca:d6:a5:9e:a4:48:db:6c:81:2f:fa:ed:64:d4:
                    fe:90:b5:74:ab:da:56:83:9e:ed:8b:6a:25:e3:45:
                    07:e1:5c:40:1f:86:3b:31:62:1c:0a:31:4a:da:42:
                    63:19:03:fa:c7:b7:b1:83:1e:81:35:1c:3d:42:0a:
                    5b:21
                Exponent: 65537 (0x10001)
        X509v3 extensions:
            X509v3 Subject Key Identifier: 
                F6:97:76:6E:07:E6:CB:3C:13:88:BE:5F:73:66:A2:FD:85:83:79:D9
            X509v3 Authority Key Identifier: 
                keyid:F4:C4:38:E4:1C:08:8A:1F:2C:2F:CD:1E:67:CE:BA:F5:2C:22:F6:6D

            X509v3 Basic Constraints: 
                CA:FALSE
            X509v3 Key Usage: 
                Digital Signature, Key Encipherment
            X509v3 Subject Alternative Name: 
                IP Address:127.0.0.1, IP Address:0:0:0:0:0:0:0:1, DNS:localhost
            Netscape Comment: 
                OpenSSL Generated Certificate
    Signature Algorithm: sha256WithRSAEncryption
        81:4e:88:af:bc:35:07:ed:53:f5:c5:15:03:65:99:5f:0a:c1:
        17:ac:ae:67:cf:1d:b1:ac:90:15:bb:b6:ae:d7:ff:d0:b9:9d:
        b0:81:9e:36:42:c8:53:4e:65:01:9c:1c:f2:65:05:ad:b2:d8:
        e3:e9:1d:86:51:08:65:9c:0c:e7:c6:42:6d:84:89:70:b9:dc:
        00:b3:52:94:d9:07:13:a7:77:76:fd:2f:da:1e:e8:c3:25:26:
        f2:b4:e6:8b:39:56:b8:a8:f1:c7:9a:5e:0c:f2:a4:48:c6:81:
        de:1f:f3:07:11:2d:1f:46:e3:18:41:62:dc:1f:5f:ff:6f:18:
        83:3e:e6:d1:4a:b9:2d:08:2b:ac:cf:03:65:90:1c:9b:0d:a1:
        ad:cd:fd:d8:38:d1:3d:29:33:c2:a6:3b:74:e9:66:b5:ee:98:
        ba:76:82:b4:a2:7a:31:e4:82:3d:46:df:48:81:53:20:1a:57:
        14:db:d3:6a:c8:64:11:25:9d:7b:39:ae:6c:c7:6a:b2:34:62:
        54:a3:6f:16:6e:0b:81:4d:fb:3c:43:08:5e:d0:08:59:83:74:
        86:03:ea:fe:55:bb:ed:05:95:33:02:22:8a:bc:a8:df:7b:da:
        1d:1d:14:f2:89:ef:78:2b:57:38:a2:26:e9:c1:aa:17:91:23:
        ab:26:5d:e4:cf:97:ce:b9:a5:9e:19:95:30:55:9a:91:16:e7:
        6e:5c:52:40:45:35:48:77:21:70:69:31:15:36:db:11:31:33:
        43:9b:f9:2d:1c:1b:0c:b3:9f:e2:21:d4:44:50:36:3f:f2:70:
        84:7a:27:a8:8d:05:58:72:c5:64:21:e5:08:b2:b1:6e:14:18:
        36:c5:d8:42:f6:87:05:39:76:1e:c9:c4:19:33:28:f1:75:8c:
        0e:f0:bd:f3:bb:3d:d8:ff:32:b6:25:06:d4:c4:70:8c:9b:49:
        62:73:1b:47:2c:0c:ea:a8:12:52:5a:09:29:2b:a1:4d:7d:3b:
        af:e6:0f:a1:7a:04:90:77:fa:45:86:f2:04:d4:fa:b2:2f:78:
        16:c8:ad:7e:ca:23:2f:6a:9d:5c:53:01:42:85:14:b2:11:68:
        62:78:93:bc:7a:9e:a2:88:eb:bd:86:32:f9:45:df:71:7f:9f:
        dd:90:51:d0:3f:83:9c:9b:72:c7:93:3b:58:b9:fc:da:5f:7a:
        48:ed:50:3c:29:56:e4:4a:25:d1:9c:95:77:a9:09:ac:e8:f2:
        b5:a4:28:d9:4b:07:cc:16:14:e6:07:7f:06:4e:56:74:02:4f:
        a7:a5:22:06:6b:3c:3c:99:04:48:37:78:8c:a8:5e:ad:85:9d:
        89:77:2f:67:6c:f8:f1:d4
-----BEGIN CERTIFICATE-----
MIIFdDCCA1ygAwIBAgIFAMzvOyowDQYJKoZIhvcNAQELBQAwgbAxCzAJBgNVBAYT
AlVTMRMwEQYDVQQIDApDYWxpZm9ybmlhMRYwFAYDVQQHDA1TYW4gRnJhbmNpc2Nv
MQ8wDQYDVQQKDAZUd2l0Y2gxHTAbBgNVBAsMFFR3aXRjaCBEZXZlbG9wZXIgUmln
MSAwHgYDVQQDDBdUd2l0Y2ggRGV2ZWxvcGVyIFJpZyBDQTEiMCAGCSqGSIb3DQEJ
ARYTdHdpdGNoZGV2QHR3aXRjaC50djAgFw0xODA4MDkyMjIwMjRaGA8yMjkyMDUy
MzIyMjAyNFowgYkxCzAJBgNVBAYTAlVTMRMwEQYDVQQIDApDYWxpZm9ybmlhMRYw
FAYDVQQHDA1TYW4gRnJhbmNpc2NvMQ8wDQYDVQQKDAZUd3RpY2gxHTAbBgNVBAsM
FFR3aXRjaCBEZXZlbG9wZXIgUmlnMR0wGwYDVQQDDBRUd2l0Y2ggRGV2ZWxvcGVy
IFJpZzCCASIwDQYJKoZIhvcNAQEBBQADggEPADCCAQoCggEBAOb+oixjpiMN0iNZ
ETOa93Y/iOoW6dIJTyRQH/2V6AC1l3+72Ltr+kRvvDTwOuXDY1vuISF8OIFxE8lD
isjhxLYsZ4ZAjVmZgf8I8Ykr+At6jzEBOYd5/hy6reHp0xJr3WwHB7tTvoxyw19W
04nSblP/+Oic2rGCPJVvaE6MmJgm3LzuDm5woisfmQri5xSQXhlkYxp6QtttFQG3
IoKPoxEdhR4YTwrZ7POi15BazEzSDdy2uhfPzhUzDyCaGx2r3ZUzqMrWpZ6kSNts
gS/67WTU/pC1dKvaVoOe7YtqJeNFB+FcQB+GOzFiHAoxStpCYxkD+se3sYMegTUc
PUIKWyECAwEAAaOBtzCBtDAdBgNVHQ4EFgQU9pd2bgfmyzwTiL5fc2ai/YWDedkw
HwYDVR0jBBgwFoAU9MQ45BwIih8sL80eZ8669Swi9m0wCQYDVR0TBAIwADALBgNV
HQ8EBAMCBaAwLAYDVR0RBCUwI4cEfwAAAYcQAAAAAAAAAAAAAAAAAAAAAYIJbG9j
YWxob3N0MCwGCWCGSAGG+EIBDQQfFh1PcGVuU1NMIEdlbmVyYXRlZCBDZXJ0aWZp
Y2F0ZTANBgkqhkiG9w0BAQsFAAOCAgEAgU6Ir7w1B+1T9cUVA2WZXwrBF6yuZ88d
sayQFbu2rtf/0LmdsIGeNkLIU05lAZwc8mUFrbLY4+kdhlEIZZwM58ZCbYSJcLnc
ALNSlNkHE6d3dv0v2h7owyUm8rTmizlWuKjxx5peDPKkSMaB3h/zBxEtH0bjGEFi
3B9f/28Ygz7m0Uq5LQgrrM8DZZAcmw2hrc392DjRPSkzwqY7dOlmte6YunaCtKJ6
MeSCPUbfSIFTIBpXFNvTashkESWdezmubMdqsjRiVKNvFm4LgU37PEMIXtAIWYN0
hgPq/lW77QWVMwIiiryo33vaHR0U8onveCtXOKIm6cGqF5EjqyZd5M+XzrmlnhmV
MFWakRbnblxSQEU1SHchcGkxFTbbETEzQ5v5LRwbDLOf4iHURFA2P/JwhHonqI0F
WHLFZCHlCLKxbhQYNsXYQvaHBTl2HsnEGTMo8XWMDvC987s92P8ytiUG1MRwjJtJ
YnMbRywM6qgSUloJKSuhTX07r+YPoXoEkHf6RYbyBNT6si94FsitfsojL2qdXFMB
QoUUshFoYniTvHqeoojrvYYy+UXfcX+f3ZBR0D+DnJtyx5M7WLn82l96SO1QPClW
5Eol0ZyVd6kJrOjytaQo2UsHzBYU5gd/Bk5WdAJPp6UiBms8PJkESDd4jKherYWd
iXcvZ2z48dQ=
-----END CERTIFICATE-----
